target datalayout = "e-m:e-p270:32:32-p271:32:32-p272:64:64-i64:64-i128:128-f80:128-n8:16:32:64-S128"
target triple = "x86_64-pc-linux-gnu"

%"class.std::__cxx11::basic_string" = type { %"struct.std::__cxx11::basic_string<char>::_Alloc_hider", i64, %union.anon }
%"struct.std::__cxx11::basic_string<char>::_Alloc_hider" = type { ptr }
%union.anon = type { i64, [8 x i8] }

; Function Attrs: mustprogress uwtable
define internal noundef i32 @_ZN12_GLOBAL__N_113GetNextNumberERKNSt7__cxx1112basic_stringIcSt11char_traitsIcESaIcEEERiRmS9_(ptr noundef nonnull align 8 dereferenceable(32) %0, ptr noundef nonnull align 4 dereferenceable(4) %1, ptr noundef nonnull align 8 dereferenceable(8) %2, ptr noundef nonnull align 8 dereferenceable(8) %3) #4 {
  %5 = alloca i32, align 4
  %6 = alloca ptr, align 8
  %7 = alloca ptr, align 8
  %8 = alloca ptr, align 8
  %9 = alloca ptr, align 8
  %10 = alloca %"class.std::__cxx11::basic_string", align 8
  %11 = alloca %"class.std::__cxx11::basic_string", align 8
  store ptr %0, ptr %6, align 8
  store ptr %1, ptr %7, align 8
  store ptr %2, ptr %8, align 8
  store ptr %3, ptr %9, align 8
  %12 = load ptr, ptr %6, align 8
  %13 = load ptr, ptr %8, align 8
  %14 = load i64, ptr %13, align 8
  %15 = call noundef i64 @_ZNKSt7__cxx1112basic_stringIcSt11char_traitsIcESaIcEE4findEcm(ptr noundef nonnull align 8 dereferenceable(32) %12, i8 noundef signext 44, i64 noundef %14) #3
  %16 = load ptr, ptr %9, align 8
  store i64 %15, ptr %16, align 8
  %17 = load ptr, ptr %9, align 8
  %18 = load i64, ptr %17, align 8
  %19 = icmp ne i64 %18, -1
  br i1 %19, label %20, label %46

20:                                               ; preds = %4
  %21 = load ptr, ptr %9, align 8
  %22 = load i64, ptr %21, align 8
  %23 = load ptr, ptr %8, align 8
  %24 = load i64, ptr %23, align 8
  %25 = sub i64 %22, %24
  %26 = icmp eq i64 %25, 0
  br i1 %26, label %27, label %29

27:                                               ; preds = %20
  %28 = load ptr, ptr %7, align 8
  store i32 -1, ptr %28, align 4
  br label %41

29:                                               ; preds = %20
  %30 = load ptr, ptr %6, align 8
  %31 = load ptr, ptr %8, align 8
  %32 = load i64, ptr %31, align 8
  %33 = load ptr, ptr %9, align 8
  %34 = load i64, ptr %33, align 8
  %35 = load ptr, ptr %8, align 8
  %36 = load i64, ptr %35, align 8
  %37 = sub i64 %34, %36
  call void @_ZNKSt7__cxx1112basic_stringIcSt11char_traitsIcESaIcEE6substrEmm(ptr dead_on_unwind writable sret(%"class.std::__cxx11::basic_string") align 8 %10, ptr noundef nonnull align 8 dereferenceable(32) %30, i64 noundef %32, i64 noundef %37)
  %38 = call noundef ptr @_ZNKSt7__cxx1112basic_stringIcSt11char_traitsIcESaIcEE5c_strEv(ptr noundef nonnull align 8 dereferenceable(32) %10) #3
  %39 = call i32 @atoi(ptr noundef %38) #20
  %40 = load ptr, ptr %7, align 8
  store i32 %39, ptr %40, align 4
  call void @_ZNSt7__cxx1112basic_stringIcSt11char_traitsIcESaIcEED1Ev(ptr noundef nonnull align 8 dereferenceable(32) %10) #3
  br label %41

41:                                               ; preds = %29, %27
  %42 = load ptr, ptr %9, align 8
  %43 = load i64, ptr %42, align 8
  %44 = add i64 %43, 1
  %45 = load ptr, ptr %8, align 8
  store i64 %44, ptr %45, align 8
  store i32 1, ptr %5, align 4
  br label %68

46:                                               ; preds = %4
  %47 = load ptr, ptr %6, align 8
  %48 = call noundef i64 @_ZNKSt7__cxx1112basic_stringIcSt11char_traitsIcESaIcEE4sizeEv(ptr noundef nonnull align 8 dereferenceable(32) %47) #3
  %49 = load ptr, ptr %8, align 8
  %50 = load i64, ptr %49, align 8
  %51 = sub i64 %48, %50
  %52 = icmp eq i64 %51, 0
  br i1 %52, label %53, label %55

53:                                               ; preds = %46
  %54 = load ptr, ptr %7, align 8
  store i32 -1, ptr %54, align 4
  br label %67

55:                                               ; preds = %46
  %56 = load ptr, ptr %6, align 8
  %57 = load ptr, ptr %8, align 8
  %58 = load i64, ptr %57, align 8
  %59 = load ptr, ptr %6, align 8
  %60 = call noundef i64 @_ZNKSt7__cxx1112basic_stringIcSt11char_traitsIcESaIcEE4sizeEv(ptr noundef nonnull align 8 dereferenceable(32) %59) #3
  %61 = load ptr, ptr %8, align 8
  %62 = load i64, ptr %61, align 8
  %63 = sub i64 %60, %62
  call void @_ZNKSt7__cxx1112basic_stringIcSt11char_traitsIcESaIcEE6substrEmm(ptr dead_on_unwind writable sret(%"class.std::__cxx11::basic_string") align 8 %11, ptr noundef nonnull align 8 dereferenceable(32) %56, i64 noundef %58, i64 noundef %63)
  %64 = call noundef ptr @_ZNKSt7__cxx1112basic_stringIcSt11char_traitsIcESaIcEE5c_strEv(ptr noundef nonnull align 8 dereferenceable(32) %11) #3
  %65 = call i32 @atoi(ptr noundef %64) #20
  %66 = load ptr, ptr %7, align 8
  store i32 %65, ptr %66, align 4
  call void @_ZNSt7__cxx1112basic_stringIcSt11char_traitsIcESaIcEED1Ev(ptr noundef nonnull align 8 dereferenceable(32) %11) #3
  br label %67

67:                                               ; preds = %55, %53
  store i32 0, ptr %5, align 4
  br label %68

68:                                               ; preds = %67, %41
  %69 = load i32, ptr %5, align 4
  ret i32 %69
}