; Function Attrs: mustprogress uwtable
define internal fastcc noundef i32 @_ZN12_GLOBAL__N_113GetNextNumberERKNSt7__cxx1112basic_stringIcSt11char_traitsIcESaIcEEERiRmS9_(ptr noundef nonnull align 8 dereferenceable(32) %0, ptr nocapture noundef nonnull writeonly align 4 dereferenceable(4) %1, ptr nocapture noundef nonnull align 8 dereferenceable(8) %2, ptr nocapture noundef nonnull align 8 dereferenceable(8) %3) unnamed_addr #3 {
  %5 = alloca %"class.std::__cxx11::basic_string", align 8
  %6 = alloca %"class.std::__cxx11::basic_string", align 8
  %7 = load i64, ptr %2, align 8
  %8 = tail call noundef i64 @_ZNKSt7__cxx1112basic_stringIcSt11char_traitsIcESaIcEE4findEcm(ptr noundef nonnull align 8 dereferenceable(32) %0, i8 noundef signext 44, i64 noundef %7) #25
  store i64 %8, ptr %3, align 8
  %.not = icmp eq i64 %8, -1
  br i1 %.not, label %20, label %9

9:                                                ; preds = %4
  %10 = load i64, ptr %2, align 8
  %11 = icmp eq i64 %8, %10
  br i1 %11, label %12, label %13

12:                                               ; preds = %9
  store i32 -1, ptr %1, align 4
  br label %17

13:                                               ; preds = %9
  %14 = sub i64 %8, %10
  call void @_ZNKSt7__cxx1112basic_stringIcSt11char_traitsIcESaIcEE6substrEmm(ptr dead_on_unwind nonnull writable sret(%"class.std::__cxx11::basic_string") align 8 %5, ptr noundef nonnull align 8 dereferenceable(32) %0, i64 noundef %10, i64 noundef %14)
  %15 = call noundef ptr @_ZNKSt7__cxx1112basic_stringIcSt11char_traitsIcESaIcEE5c_strEv(ptr noundef nonnull align 8 dereferenceable(32) %5) #25
  %16 = call i32 @atoi(ptr nocapture noundef %15) #28
  store i32 %16, ptr %1, align 4
  call void @_ZNSt7__cxx1112basic_stringIcSt11char_traitsIcESaIcEED1Ev(ptr noundef nonnull align 8 dereferenceable(32) %5) #25
  br label %17

17:                                               ; preds = %13, %12
  %18 = load i64, ptr %3, align 8
  %19 = add i64 %18, 1
  store i64 %19, ptr %2, align 8
  br label %31

20:                                               ; preds = %4
  %21 = tail call noundef i64 @_ZNKSt7__cxx1112basic_stringIcSt11char_traitsIcESaIcEE4sizeEv(ptr noundef nonnull align 8 dereferenceable(32) %0) #25
  %22 = load i64, ptr %2, align 8
  %23 = icmp eq i64 %21, %22
  br i1 %23, label %24, label %25

24:                                               ; preds = %20
  store i32 -1, ptr %1, align 4
  br label %31

25:                                               ; preds = %20
  %26 = tail call noundef i64 @_ZNKSt7__cxx1112basic_stringIcSt11char_traitsIcESaIcEE4sizeEv(ptr noundef nonnull align 8 dereferenceable(32) %0) #25
  %27 = load i64, ptr %2, align 8
  %28 = sub i64 %26, %27
  call void @_ZNKSt7__cxx1112basic_stringIcSt11char_traitsIcESaIcEE6substrEmm(ptr dead_on_unwind nonnull writable sret(%"class.std::__cxx11::basic_string") align 8 %6, ptr noundef nonnull align 8 dereferenceable(32) %0, i64 noundef %22, i64 noundef %28)
  %29 = call noundef ptr @_ZNKSt7__cxx1112basic_stringIcSt11char_traitsIcESaIcEE5c_strEv(ptr noundef nonnull align 8 dereferenceable(32) %6) #25
  %30 = call i32 @atoi(ptr nocapture noundef %29) #28
  store i32 %30, ptr %1, align 4
  call void @_ZNSt7__cxx1112basic_stringIcSt11char_traitsIcESaIcEED1Ev(ptr noundef nonnull align 8 dereferenceable(32) %6) #25
  br label %31

31:                                               ; preds = %24, %25, %17
  %.0 = phi i32 [ 1, %17 ], [ 0, %25 ], [ 0, %24 ]
  ret i32 %.0
}